target datalayout = "e-m:e-p270:32:32-p271:32:32-p272:64:64-i64:64-i128:128-f80:128-n8:16:32:64-S128"
target triple = "x86_64-pc-linux-gnu"

%"class.OpenImageIO::v3_1_0::basic_string_view" = type { ptr, i64 }

@stderr = external global ptr, align 8
@.str.11 = private unnamed_addr constant [35 x i8] c"%s:%u: %s: Assertion '%s' failed.\0A\00", align 1
@.str.12 = private unnamed_addr constant [118 x i8] c"generated/home/dtcxzyw/WorkSpace/Projects/compilers/llvm-opt-benchmark/bench/oiio/OpenImageIO/src/libutil/strutil.cpp\00", align 1
@__FUNCTION__._ZN11OpenImageIO6v3_1_07Strutil12parse_nestedERNS0_17basic_string_viewIcSt11char_traitsIcEEEb = private unnamed_addr constant [13 x i8] c"parse_nested\00", align 1
@.str.37 = private unnamed_addr constant [22 x i8] c"p[len - 1] == closing\00", align 1

; Function Attrs: mustprogress nounwind uwtable
define linkonce_odr hidden void @_ZN11OpenImageIO6v3_1_017basic_string_viewIcSt11char_traitsIcEEC2EPKcm(ptr noundef nonnull align 8 dereferenceable(16) %0, ptr noundef %1, i64 noundef %2) unnamed_addr #6 comdat align 2 {
  %4 = alloca ptr, align 8
  %5 = alloca ptr, align 8
  %6 = alloca i64, align 8
  store ptr %0, ptr %4, align 8, !tbaa !103
  store ptr %1, ptr %5, align 8, !tbaa !10
  store i64 %2, ptr %6, align 8, !tbaa !108
  %7 = load ptr, ptr %4, align 8
  %8 = getelementptr inbounds nuw %"class.OpenImageIO::v3_1_0::basic_string_view", ptr %7, i32 0, i32 0
  %9 = load ptr, ptr %5, align 8, !tbaa !10
  store ptr %9, ptr %8, align 8, !tbaa !109
  %10 = getelementptr inbounds nuw %"class.OpenImageIO::v3_1_0::basic_string_view", ptr %7, i32 0, i32 1
  %11 = load i64, ptr %6, align 8, !tbaa !108
  store i64 %11, ptr %10, align 8, !tbaa !105
  ret void
}

; Function Attrs: mustprogress nounwind uwtable
define linkonce_odr hidden noundef ptr @_ZNK11OpenImageIO6v3_1_017basic_string_viewIcSt11char_traitsIcEE4dataEv(ptr noundef nonnull align 8 dereferenceable(16) %0) #6 comdat align 2 {
  %2 = alloca ptr, align 8
  store ptr %0, ptr %2, align 8, !tbaa !103
  %3 = load ptr, ptr %2, align 8
  %4 = getelementptr inbounds nuw %"class.OpenImageIO::v3_1_0::basic_string_view", ptr %3, i32 0, i32 0
  %5 = load ptr, ptr %4, align 8, !tbaa !109
  ret ptr %5
}

; Function Attrs: noinline noreturn nounwind uwtable
define linkonce_odr hidden void @__clang_call_terminate(ptr noundef %0) #17 comdat {
  %2 = call ptr @__cxa_begin_catch(ptr %0) #3
  call void @_ZSt9terminatev() #28
  unreachable
}

; Function Attrs: mustprogress nounwind uwtable
define linkonce_odr hidden void @_ZN11OpenImageIO6v3_1_017basic_string_viewIcSt11char_traitsIcEE13remove_prefixEm(ptr noundef nonnull align 8 dereferenceable(16) %0, i64 noundef %1) #6 comdat align 2 {
  %3 = alloca ptr, align 8
  %4 = alloca i64, align 8
  store ptr %0, ptr %3, align 8, !tbaa !103
  store i64 %1, ptr %4, align 8, !tbaa !108
  %5 = load ptr, ptr %3, align 8
  %6 = load i64, ptr %4, align 8, !tbaa !108
  %7 = getelementptr inbounds nuw %"class.OpenImageIO::v3_1_0::basic_string_view", ptr %5, i32 0, i32 1
  %8 = load i64, ptr %7, align 8, !tbaa !105
  %9 = icmp ugt i64 %6, %8
  br i1 %9, label %10, label %13

10:                                               ; preds = %2
  %11 = getelementptr inbounds nuw %"class.OpenImageIO::v3_1_0::basic_string_view", ptr %5, i32 0, i32 1
  %12 = load i64, ptr %11, align 8, !tbaa !105
  store i64 %12, ptr %4, align 8, !tbaa !108
  br label %13

13:                                               ; preds = %10, %2
  %14 = load i64, ptr %4, align 8, !tbaa !108
  %15 = getelementptr inbounds nuw %"class.OpenImageIO::v3_1_0::basic_string_view", ptr %5, i32 0, i32 0
  %16 = load ptr, ptr %15, align 8, !tbaa !109
  %17 = getelementptr inbounds nuw i8, ptr %16, i64 %14
  store ptr %17, ptr %15, align 8, !tbaa !109
  %18 = load i64, ptr %4, align 8, !tbaa !108
  %19 = getelementptr inbounds nuw %"class.OpenImageIO::v3_1_0::basic_string_view", ptr %5, i32 0, i32 1
  %20 = load i64, ptr %19, align 8, !tbaa !105
  %21 = sub i64 %20, %18
  store i64 %21, ptr %19, align 8, !tbaa !105
  ret void
}

; Function Attrs: mustprogress nounwind uwtable
define linkonce_odr hidden void @_ZNK11OpenImageIO6v3_1_017basic_string_viewIcSt11char_traitsIcEE6substrEmm(ptr dead_on_unwind noalias writable sret(%"class.OpenImageIO::v3_1_0::basic_string_view") align 8 %0, ptr noundef nonnull align 8 dereferenceable(16) %1, i64 noundef %2, i64 noundef %3) #6 comdat align 2 {
  %5 = alloca ptr, align 8
  %6 = alloca ptr, align 8
  %7 = alloca i64, align 8
  %8 = alloca i64, align 8
  store ptr %0, ptr %5, align 8
  store ptr %1, ptr %6, align 8, !tbaa !103
  store i64 %2, ptr %7, align 8, !tbaa !108
  store i64 %3, ptr %8, align 8, !tbaa !108
  %9 = load ptr, ptr %6, align 8
  %10 = load i64, ptr %7, align 8, !tbaa !108
  %11 = call noundef i64 @_ZNK11OpenImageIO6v3_1_017basic_string_viewIcSt11char_traitsIcEE4sizeEv(ptr noundef nonnull align 8 dereferenceable(16) %9) #3
  %12 = icmp uge i64 %10, %11
  br i1 %12, label %13, label %14

13:                                               ; preds = %4
  call void @_ZN11OpenImageIO6v3_1_017basic_string_viewIcSt11char_traitsIcEEC2Ev(ptr noundef nonnull align 8 dereferenceable(16) %0) #3
  br label %32

14:                                               ; preds = %4
  %15 = load i64, ptr %8, align 8, !tbaa !108
  %16 = icmp eq i64 %15, -1
  br i1 %16, label %23, label %17

17:                                               ; preds = %14
  %18 = load i64, ptr %7, align 8, !tbaa !108
  %19 = load i64, ptr %8, align 8, !tbaa !108
  %20 = add i64 %18, %19
  %21 = call noundef i64 @_ZNK11OpenImageIO6v3_1_017basic_string_viewIcSt11char_traitsIcEE4sizeEv(ptr noundef nonnull align 8 dereferenceable(16) %9) #3
  %22 = icmp ugt i64 %20, %21
  br i1 %22, label %23, label %27

23:                                               ; preds = %17, %14
  %24 = call noundef i64 @_ZNK11OpenImageIO6v3_1_017basic_string_viewIcSt11char_traitsIcEE4sizeEv(ptr noundef nonnull align 8 dereferenceable(16) %9) #3
  %25 = load i64, ptr %7, align 8, !tbaa !108
  %26 = sub i64 %24, %25
  store i64 %26, ptr %8, align 8, !tbaa !108
  br label %27

27:                                               ; preds = %23, %17
  %28 = call noundef ptr @_ZNK11OpenImageIO6v3_1_017basic_string_viewIcSt11char_traitsIcEE4dataEv(ptr noundef nonnull align 8 dereferenceable(16) %9) #3
  %29 = load i64, ptr %7, align 8, !tbaa !108
  %30 = getelementptr inbounds nuw i8, ptr %28, i64 %29
  %31 = load i64, ptr %8, align 8, !tbaa !108
  call void @_ZN11OpenImageIO6v3_1_017basic_string_viewIcSt11char_traitsIcEEC2EPKcm(ptr noundef nonnull align 8 dereferenceable(16) %0, ptr noundef %30, i64 noundef %31) #3
  br label %32

32:                                               ; preds = %27, %13
  ret void
}

; Function Attrs: mustprogress nounwind uwtable
define linkonce_odr hidden noundef nonnull align 1 dereferenceable(1) ptr @_ZNK11OpenImageIO6v3_1_017basic_string_viewIcSt11char_traitsIcEEixEm(ptr noundef nonnull align 8 dereferenceable(16) %0, i64 noundef %1) #6 comdat align 2 {
  %3 = alloca ptr, align 8
  %4 = alloca i64, align 8
  store ptr %0, ptr %3, align 8, !tbaa !103
  store i64 %1, ptr %4, align 8, !tbaa !108
  %5 = load ptr, ptr %3, align 8
  %6 = getelementptr inbounds nuw %"class.OpenImageIO::v3_1_0::basic_string_view", ptr %5, i32 0, i32 0
  %7 = load ptr, ptr %6, align 8, !tbaa !109
  %8 = load i64, ptr %4, align 8, !tbaa !108
  %9 = getelementptr inbounds nuw i8, ptr %7, i64 %8
  ret ptr %9
}

; Function Attrs: mustprogress nounwind uwtable
define linkonce_odr hidden void @_ZN11OpenImageIO6v3_1_017basic_string_viewIcSt11char_traitsIcEEC2Ev(ptr noundef nonnull align 8 dereferenceable(16) %0) unnamed_addr #6 comdat align 2 {
  %2 = alloca ptr, align 8
  store ptr %0, ptr %2, align 8, !tbaa !103
  %3 = load ptr, ptr %2, align 8
  %4 = getelementptr inbounds nuw %"class.OpenImageIO::v3_1_0::basic_string_view", ptr %3, i32 0, i32 0
  store ptr null, ptr %4, align 8, !tbaa !109
  %5 = getelementptr inbounds nuw %"class.OpenImageIO::v3_1_0::basic_string_view", ptr %3, i32 0, i32 1
  store i64 0, ptr %5, align 8, !tbaa !105
  ret void
}

; Function Attrs: mustprogress nounwind uwtable
define linkonce_odr hidden noundef i64 @_ZNK11OpenImageIO6v3_1_017basic_string_viewIcSt11char_traitsIcEE4sizeEv(ptr noundef nonnull align 8 dereferenceable(16) %0) #6 comdat align 2 {
  %2 = alloca ptr, align 8
  store ptr %0, ptr %2, align 8, !tbaa !103
  %3 = load ptr, ptr %2, align 8
  %4 = getelementptr inbounds nuw %"class.OpenImageIO::v3_1_0::basic_string_view", ptr %3, i32 0, i32 1
  %5 = load i64, ptr %4, align 8, !tbaa !105
  ret i64 %5
}

; Function Attrs: mustprogress nounwind uwtable
define linkonce_odr hidden void @_ZN11OpenImageIO6v3_1_017basic_string_viewIcSt11char_traitsIcEEC2ERKS4_(ptr noundef nonnull align 8 dereferenceable(16) %0, ptr noundef nonnull align 8 dereferenceable(16) %1) unnamed_addr #6 comdat align 2 {
  %3 = alloca ptr, align 8
  %4 = alloca ptr, align 8
  store ptr %0, ptr %3, align 8, !tbaa !103
  store ptr %1, ptr %4, align 8, !tbaa !103
  %5 = load ptr, ptr %3, align 8
  %6 = getelementptr inbounds nuw %"class.OpenImageIO::v3_1_0::basic_string_view", ptr %5, i32 0, i32 0
  %7 = load ptr, ptr %4, align 8, !tbaa !103
  %8 = call noundef ptr @_ZNK11OpenImageIO6v3_1_017basic_string_viewIcSt11char_traitsIcEE4dataEv(ptr noundef nonnull align 8 dereferenceable(16) %7) #3
  store ptr %8, ptr %6, align 8, !tbaa !109
  %9 = getelementptr inbounds nuw %"class.OpenImageIO::v3_1_0::basic_string_view", ptr %5, i32 0, i32 1
  %10 = load ptr, ptr %4, align 8, !tbaa !103
  %11 = call noundef i64 @_ZNK11OpenImageIO6v3_1_017basic_string_viewIcSt11char_traitsIcEE4sizeEv(ptr noundef nonnull align 8 dereferenceable(16) %10) #3
  store i64 %11, ptr %9, align 8, !tbaa !105
  ret void
}

; Function Attrs: mustprogress nounwind uwtable
define void @_ZN11OpenImageIO6v3_1_07Strutil12parse_nestedERNS0_17basic_string_viewIcSt11char_traitsIcEEEb(ptr dead_on_unwind noalias writable sret(%"class.OpenImageIO::v3_1_0::basic_string_view") align 8 %0, ptr noundef nonnull align 8 dereferenceable(16) %1, i1 noundef zeroext %2) #6 personality ptr @__gxx_personality_v0 {
  %4 = alloca ptr, align 8
  %5 = alloca ptr, align 8
  %6 = alloca i8, align 1
  %7 = alloca %"class.OpenImageIO::v3_1_0::basic_string_view", align 8
  %8 = alloca i32, align 4
  %9 = alloca i8, align 1
  %10 = alloca i8, align 1
  %11 = alloca i64, align 8
  %12 = alloca i32, align 4
  store ptr %0, ptr %4, align 8
  store ptr %1, ptr %5, align 8, !tbaa !103
  %13 = zext i1 %2 to i8
  store i8 %13, ptr %6, align 1, !tbaa !116
  call void @llvm.lifetime.start.p0(i64 16, ptr %7) #3
  %14 = load ptr, ptr %5, align 8, !tbaa !103
  invoke void @_ZN11OpenImageIO6v3_1_017basic_string_viewIcSt11char_traitsIcEEC2ERKS4_(ptr noundef nonnull align 8 dereferenceable(16) %7, ptr noundef nonnull align 8 dereferenceable(16) %14)
          to label %15 unwind label %112

15:                                               ; preds = %3
  %16 = call noundef i64 @_ZNK11OpenImageIO6v3_1_017basic_string_viewIcSt11char_traitsIcEE4sizeEv(ptr noundef nonnull align 8 dereferenceable(16) %7) #3
  %17 = icmp ne i64 %16, 0
  br i1 %17, label %19, label %18

18:                                               ; preds = %15
  call void @_ZN11OpenImageIO6v3_1_017basic_string_viewIcSt11char_traitsIcEEC2Ev(ptr noundef nonnull align 8 dereferenceable(16) %0) #3
  store i32 1, ptr %8, align 4
  br label %111

19:                                               ; preds = %15
  call void @llvm.lifetime.start.p0(i64 1, ptr %9) #3
  %20 = invoke noundef nonnull align 1 dereferenceable(1) ptr @_ZNK11OpenImageIO6v3_1_017basic_string_viewIcSt11char_traitsIcEEixEm(ptr noundef nonnull align 8 dereferenceable(16) %7, i64 noundef 0)
          to label %21 unwind label %112

21:                                               ; preds = %19
  %22 = load i8, ptr %20, align 1, !tbaa !8
  store i8 %22, ptr %9, align 1, !tbaa !8
  call void @llvm.lifetime.start.p0(i64 1, ptr %10) #3
  store i8 0, ptr %10, align 1, !tbaa !8
  %23 = load i8, ptr %9, align 1, !tbaa !8
  %24 = sext i8 %23 to i32
  %25 = icmp eq i32 %24, 40
  br i1 %25, label %26, label %27

26:                                               ; preds = %21
  store i8 41, ptr %10, align 1, !tbaa !8
  br label %40

27:                                               ; preds = %21
  %28 = load i8, ptr %9, align 1, !tbaa !8
  %29 = sext i8 %28 to i32
  %30 = icmp eq i32 %29, 91
  br i1 %30, label %31, label %32

31:                                               ; preds = %27
  store i8 93, ptr %10, align 1, !tbaa !8
  br label %39

32:                                               ; preds = %27
  %33 = load i8, ptr %9, align 1, !tbaa !8
  %34 = sext i8 %33 to i32
  %35 = icmp eq i32 %34, 123
  br i1 %35, label %36, label %37

36:                                               ; preds = %32
  store i8 125, ptr %10, align 1, !tbaa !8
  br label %38

37:                                               ; preds = %32
  call void @_ZN11OpenImageIO6v3_1_017basic_string_viewIcSt11char_traitsIcEEC2Ev(ptr noundef nonnull align 8 dereferenceable(16) %0) #3
  store i32 1, ptr %8, align 4
  br label %110

38:                                               ; preds = %36
  br label %39

39:                                               ; preds = %38, %31
  br label %40

40:                                               ; preds = %39, %26
  call void @llvm.lifetime.start.p0(i64 8, ptr %11) #3
  store i64 1, ptr %11, align 8, !tbaa !108
  call void @llvm.lifetime.start.p0(i64 4, ptr %12) #3
  store i32 1, ptr %12, align 4, !tbaa !14
  br label %41

41:                                               ; preds = %76, %40
  %42 = load i32, ptr %12, align 4, !tbaa !14
  %43 = icmp ne i32 %42, 0
  br i1 %43, label %44, label %48

44:                                               ; preds = %41
  %45 = load i64, ptr %11, align 8, !tbaa !108
  %46 = call noundef i64 @_ZNK11OpenImageIO6v3_1_017basic_string_viewIcSt11char_traitsIcEE4sizeEv(ptr noundef nonnull align 8 dereferenceable(16) %7) #3
  %47 = icmp ult i64 %45, %46
  br label %48

48:                                               ; preds = %44, %41
  %49 = phi i1 [ false, %41 ], [ %47, %44 ]
  br i1 %49, label %50, label %79

50:                                               ; preds = %48
  %51 = load i64, ptr %11, align 8, !tbaa !108
  %52 = invoke noundef nonnull align 1 dereferenceable(1) ptr @_ZNK11OpenImageIO6v3_1_017basic_string_viewIcSt11char_traitsIcEEixEm(ptr noundef nonnull align 8 dereferenceable(16) %7, i64 noundef %51)
          to label %53 unwind label %112

53:                                               ; preds = %50
  %54 = load i8, ptr %52, align 1, !tbaa !8
  %55 = sext i8 %54 to i32
  %56 = load i8, ptr %9, align 1, !tbaa !8
  %57 = sext i8 %56 to i32
  %58 = icmp eq i32 %55, %57
  br i1 %58, label %59, label %62

59:                                               ; preds = %53
  %60 = load i32, ptr %12, align 4, !tbaa !14
  %61 = add nsw i32 %60, 1
  store i32 %61, ptr %12, align 4, !tbaa !14
  br label %75

62:                                               ; preds = %53
  %63 = load i64, ptr %11, align 8, !tbaa !108
  %64 = invoke noundef nonnull align 1 dereferenceable(1) ptr @_ZNK11OpenImageIO6v3_1_017basic_string_viewIcSt11char_traitsIcEEixEm(ptr noundef nonnull align 8 dereferenceable(16) %7, i64 noundef %63)
          to label %65 unwind label %112

65:                                               ; preds = %62
  %66 = load i8, ptr %64, align 1, !tbaa !8
  %67 = sext i8 %66 to i32
  %68 = load i8, ptr %10, align 1, !tbaa !8
  %69 = sext i8 %68 to i32
  %70 = icmp eq i32 %67, %69
  br i1 %70, label %71, label %74

71:                                               ; preds = %65
  %72 = load i32, ptr %12, align 4, !tbaa !14
  %73 = add nsw i32 %72, -1
  store i32 %73, ptr %12, align 4, !tbaa !14
  br label %74

74:                                               ; preds = %71, %65
  br label %75

75:                                               ; preds = %74, %59
  br label %76

76:                                               ; preds = %75
  %77 = load i64, ptr %11, align 8, !tbaa !108
  %78 = add i64 %77, 1
  store i64 %78, ptr %11, align 8, !tbaa !108
  br label %41, !llvm.loop !272

79:                                               ; preds = %48
  %80 = load i32, ptr %12, align 4, !tbaa !14
  %81 = icmp ne i32 %80, 0
  br i1 %81, label %82, label %83

82:                                               ; preds = %79
  call void @_ZN11OpenImageIO6v3_1_017basic_string_viewIcSt11char_traitsIcEEC2Ev(ptr noundef nonnull align 8 dereferenceable(16) %0) #3
  store i32 1, ptr %8, align 4
  br label %109

83:                                               ; preds = %79
  %84 = load i64, ptr %11, align 8, !tbaa !108
  %85 = sub i64 %84, 1
  %86 = invoke noundef nonnull align 1 dereferenceable(1) ptr @_ZNK11OpenImageIO6v3_1_017basic_string_viewIcSt11char_traitsIcEEixEm(ptr noundef nonnull align 8 dereferenceable(16) %7, i64 noundef %85)
          to label %87 unwind label %112

87:                                               ; preds = %83
  %88 = load i8, ptr %86, align 1, !tbaa !8
  %89 = sext i8 %88 to i32
  %90 = load i8, ptr %10, align 1, !tbaa !8
  %91 = sext i8 %90 to i32
  %92 = icmp eq i32 %89, %91
  %93 = zext i1 %92 to i64
  %94 = call i64 @llvm.expect.i64(i64 %93, i64 1)
  %95 = icmp ne i64 %94, 0
  br i1 %95, label %96, label %97

96:                                               ; preds = %87
  br label %100

97:                                               ; preds = %87
  %98 = load ptr, ptr @stderr, align 8, !tbaa !114
  %99 = call i32 (ptr, ptr, ...) @fprintf(ptr noundef %98, ptr noundef @.str.11, ptr noundef @.str.12, i32 noundef 1439, ptr noundef @__FUNCTION__._ZN11OpenImageIO6v3_1_07Strutil12parse_nestedERNS0_17basic_string_viewIcSt11char_traitsIcEEEb, ptr noundef @.str.37) #3
  br label %100

100:                                              ; preds = %97, %96
  %101 = load ptr, ptr %5, align 8, !tbaa !103
  %102 = load i64, ptr %11, align 8, !tbaa !108
  call void @_ZNK11OpenImageIO6v3_1_017basic_string_viewIcSt11char_traitsIcEE6substrEmm(ptr dead_on_unwind writable sret(%"class.OpenImageIO::v3_1_0::basic_string_view") align 8 %0, ptr noundef nonnull align 8 dereferenceable(16) %101, i64 noundef 0, i64 noundef %102) #3
  %103 = load i8, ptr %6, align 1, !tbaa !116, !range !118, !noundef !119
  %104 = trunc i8 %103 to i1
  br i1 %104, label %105, label %108

105:                                              ; preds = %100
  %106 = load ptr, ptr %5, align 8, !tbaa !103
  %107 = load i64, ptr %11, align 8, !tbaa !108
  call void @_ZN11OpenImageIO6v3_1_017basic_string_viewIcSt11char_traitsIcEE13remove_prefixEm(ptr noundef nonnull align 8 dereferenceable(16) %106, i64 noundef %107) #3
  br label %108

108:                                              ; preds = %105, %100
  store i32 1, ptr %8, align 4
  br label %109

109:                                              ; preds = %108, %82
  call void @llvm.lifetime.end.p0(i64 4, ptr %12) #3
  call void @llvm.lifetime.end.p0(i64 8, ptr %11) #3
  br label %110

110:                                              ; preds = %109, %37
  call void @llvm.lifetime.end.p0(i64 1, ptr %10) #3
  call void @llvm.lifetime.end.p0(i64 1, ptr %9) #3
  br label %111

111:                                              ; preds = %110, %18
  call void @llvm.lifetime.end.p0(i64 16, ptr %7) #3
  ret void

112:                                              ; preds = %83, %62, %50, %19, %3
  %113 = landingpad { ptr, i32 }
          catch ptr null
  %114 = extractvalue { ptr, i32 } %113, 0
  call void @__clang_call_terminate(ptr %114) #28
  unreachable
}