; Function Attrs: mustprogress nofree nounwind uwtable
define void @_ZN11OpenImageIO6v3_1_07Strutil12parse_nestedERNS0_17basic_string_viewIcSt11char_traitsIcEEEb(ptr dead_on_unwind noalias writable writeonly sret(%"class.OpenImageIO::v3_1_0::basic_string_view") align 8 captures(none) %0, ptr noundef nonnull align 8 captures(none) dereferenceable(16) %1, i1 noundef zeroext %2) local_unnamed_addr #31 personality ptr @__gxx_personality_v0 {
  %4 = load ptr, ptr %1, align 8, !tbaa !67
  %5 = getelementptr inbounds nuw i8, ptr %1, i64 8
  %6 = load i64, ptr %5, align 8, !tbaa !64
  %.not = icmp eq i64 %6, 0
  br i1 %.not, label %7, label %8

7:                                                ; preds = %3
  tail call void @llvm.memset.p0.i64(ptr noundef nonnull align 8 dereferenceable(16) %0, i8 0, i64 16, i1 false)
  br label %38

8:                                                ; preds = %3
  %9 = load i8, ptr %4, align 1, !tbaa !3
  switch i8 %9, label %12 [
    i8 40, label %13
    i8 91, label %10
    i8 123, label %11
  ]

10:                                               ; preds = %8
  br label %13

11:                                               ; preds = %8
  br label %13

12:                                               ; preds = %8
  tail call void @llvm.memset.p0.i64(ptr noundef nonnull align 8 dereferenceable(16) %0, i8 0, i64 16, i1 false)
  br label %38

13:                                               ; preds = %8, %10, %11
  %.021 = phi i32 [ 93, %10 ], [ 125, %11 ], [ 41, %8 ]
  br label %14

14:                                               ; preds = %13, %15
  %.031 = phi i32 [ 1, %13 ], [ %.1, %15 ]
  %.02030 = phi i64 [ 1, %13 ], [ %22, %15 ]
  %exitcond.not = icmp eq i64 %.02030, %6
  br i1 %exitcond.not, label %.critedge, label %15

15:                                               ; preds = %14
  %16 = getelementptr inbounds nuw i8, ptr %4, i64 %.02030
  %17 = load i8, ptr %16, align 1, !tbaa !3
  %18 = icmp eq i8 %17, %9
  %19 = sext i8 %17 to i32
  %20 = icmp eq i32 %.021, %19
  %21 = sext i1 %20 to i32
  %.1.v = select i1 %18, i32 1, i32 %21
  %.1 = add nsw i32 %.1.v, %.031
  %22 = add i64 %.02030, 1
  %.not23 = icmp eq i32 %.1, 0
  br i1 %.not23, label %.critedge24, label %14, !llvm.loop !369

.critedge:                                        ; preds = %14
  tail call void @llvm.memset.p0.i64(ptr noundef nonnull align 8 dereferenceable(16) %0, i8 0, i64 16, i1 false)
  br label %38

.critedge24:                                      ; preds = %15
  br i1 %20, label %26, label %23, !prof !81

23:                                               ; preds = %.critedge24
  %24 = load ptr, ptr @stderr, align 8, !tbaa !91
  %25 = tail call i32 (ptr, ptr, ...) @fprintf(ptr noundef %24, ptr noundef nonnull @.str.11, ptr noundef nonnull @.str.12, i32 noundef 1439, ptr noundef nonnull @__FUNCTION__._ZN11OpenImageIO6v3_1_07Strutil12parse_nestedERNS0_17basic_string_viewIcSt11char_traitsIcEEEb, ptr noundef nonnull @.str.37) #46
  %.pre = load i64, ptr %5, align 8, !tbaa !64, !noalias !370
  br label %26

26:                                               ; preds = %.critedge24, %23
  %27 = phi i64 [ %6, %.critedge24 ], [ %.pre, %23 ]
  tail call void @llvm.experimental.noalias.scope.decl(metadata !370)
  %.not.i.not = icmp eq i64 %27, 0
  br i1 %.not.i.not, label %28, label %29

28:                                               ; preds = %26
  tail call void @llvm.memset.p0.i64(ptr noundef nonnull align 8 dereferenceable(16) %0, i8 0, i64 16, i1 false), !alias.scope !370
  br label %_ZNK11OpenImageIO6v3_1_017basic_string_viewIcSt11char_traitsIcEE6substrEmm.exit

29:                                               ; preds = %26
  %30 = icmp eq i64 %22, -1
  %31 = tail call i64 @llvm.umin.i64(i64 %22, i64 %27)
  %.0.i = select i1 %30, i64 %27, i64 %31
  %32 = load ptr, ptr %1, align 8, !tbaa !67, !noalias !370
  store ptr %32, ptr %0, align 8, !tbaa !67, !alias.scope !370
  %33 = getelementptr inbounds nuw i8, ptr %0, i64 8
  store i64 %.0.i, ptr %33, align 8, !tbaa !64, !alias.scope !370
  br label %_ZNK11OpenImageIO6v3_1_017basic_string_viewIcSt11char_traitsIcEE6substrEmm.exit

_ZNK11OpenImageIO6v3_1_017basic_string_viewIcSt11char_traitsIcEE6substrEmm.exit: ; preds = %28, %29
  br i1 %2, label %34, label %38

34:                                               ; preds = %_ZNK11OpenImageIO6v3_1_017basic_string_viewIcSt11char_traitsIcEE6substrEmm.exit
  %spec.select.i = tail call i64 @llvm.umin.i64(i64 %22, i64 %27)
  %35 = load ptr, ptr %1, align 8, !tbaa !67
  %36 = getelementptr inbounds nuw i8, ptr %35, i64 %spec.select.i
  store ptr %36, ptr %1, align 8, !tbaa !67
  %37 = sub i64 %27, %spec.select.i
  store i64 %37, ptr %5, align 8, !tbaa !64
  br label %38

38:                                               ; preds = %12, %_ZNK11OpenImageIO6v3_1_017basic_string_viewIcSt11char_traitsIcEE6substrEmm.exit, %34, %.critedge, %7
  ret void
}